# SymbolsHelper-Confirmed: 6.1.3 amd64
libKScreenLocker.so.6 libkscreenlocker6 #MINVER#
* Build-Depends-Package: kscreenlocker-dev
 _ZGVZN9QMetaType21registerConverterImplI5QListI15QDBusObjectPathE9QIterableI13QMetaSequenceEEEbSt8functionIFbPKvPvEES_S_E10unregister@Base 6.1.0
 _ZGVZN9QMetaType21registerConverterImplI5QListI19KGlobalShortcutInfoE9QIterableI13QMetaSequenceEEEbSt8functionIFbPKvPvEES_S_E10unregister@Base 6.1.0
 _ZGVZN9QMetaType21registerConverterImplI5QListISt4pairI7QStringS3_EE9QIterableI13QMetaSequenceEEEbSt8functionIFbPKvPvEES_S_E10unregister@Base 6.1.0
 _ZGVZN9QMetaType21registerConverterImplISt4pairI7QStringS2_EN17QtMetaTypePrivate25QPairVariantInterfaceImplEEEbSt8functionIFbPKvPvEES_S_E10unregister@Base 6.1.0
 _ZGVZN9QMetaType23registerMutableViewImplI5QListI15QDBusObjectPathE9QIterableI13QMetaSequenceEEEbSt8functionIFbPvS8_EES_S_E10unregister@Base 6.1.0
 _ZGVZN9QMetaType23registerMutableViewImplI5QListI19KGlobalShortcutInfoE9QIterableI13QMetaSequenceEEEbSt8functionIFbPvS8_EES_S_E10unregister@Base 6.1.0
 _ZGVZN9QMetaType23registerMutableViewImplI5QListISt4pairI7QStringS3_EE9QIterableI13QMetaSequenceEEEbSt8functionIFbPvSA_EES_S_E10unregister@Base 6.1.0
 _ZN12ScreenLocker7KSldApp10initializeEv@Base 6.1.0
 _ZN12ScreenLocker7KSldApp11aboutToLockEv@Base 6.1.0
 _ZN12ScreenLocker7KSldApp11qt_metacallEN11QMetaObject4CallEiPPv@Base 6.1.0
 _ZN12ScreenLocker7KSldApp11qt_metacastEPKc@Base 6.1.0
 _ZN12ScreenLocker7KSldApp12endGraceTimeEv@Base 6.1.0
 _ZN12ScreenLocker7KSldApp12setWaylandFdEi@Base 6.1.0
 _ZN12ScreenLocker7KSldApp12solidSuspendEv@Base 6.1.0
 _ZN12ScreenLocker7KSldApp12userActivityEv@Base 6.1.0
 _ZN12ScreenLocker7KSldApp13establishGrabEv@Base 6.1.0
 _ZN12ScreenLocker7KSldApp13initializeX11Ev@Base 6.1.0
 _ZN12ScreenLocker7KSldApp14hideLockWindowEv@Base 6.1.0
 _ZN12ScreenLocker7KSldApp14showLockWindowEv@Base 6.1.0
 _ZN12ScreenLocker7KSldApp15lockScreenShownEv@Base 6.1.0
 _ZN12ScreenLocker7KSldApp16lockStateChangedEv@Base 6.1.0
 _ZN12ScreenLocker7KSldApp16startLockProcessENS_13EstablishLockE@Base 6.1.0
 _ZN12ScreenLocker7KSldApp16staticMetaObjectE@Base 6.1.0
 _ZN12ScreenLocker7KSldApp19aboutToStartGreeterEv@Base 6.1.3
 _ZN12ScreenLocker7KSldApp21setGreeterEnvironmentERK19QProcessEnvironment@Base 6.1.0
 _ZN12ScreenLocker7KSldApp26lockProcessRequestedUnlockEv@Base 6.1.0
 _ZN12ScreenLocker7KSldApp4lockENS_13EstablishLockEi@Base 6.1.0
 _ZN12ScreenLocker7KSldApp4selfEv@Base 6.1.0
 _ZN12ScreenLocker7KSldApp5eventEP6QEvent@Base 6.1.0
 _ZN12ScreenLocker7KSldApp6lockedEv@Base 6.1.0
 _ZN12ScreenLocker7KSldApp6unlockEv@Base 6.1.0
 _ZN12ScreenLocker7KSldApp7cleanUpEv@Base 6.1.0
 _ZN12ScreenLocker7KSldApp7inhibitEv@Base 6.1.0
 _ZN12ScreenLocker7KSldApp8doUnlockEv@Base 6.1.0
 _ZN12ScreenLocker7KSldApp8unlockedEv@Base 6.1.0
 _ZN12ScreenLocker7KSldApp9configureEv@Base 6.1.0
 _ZN12ScreenLocker7KSldApp9uninhibitEv@Base 6.1.0
 _ZN12ScreenLocker7KSldAppC1EP7QObject@Base 6.1.0
 _ZN12ScreenLocker7KSldAppC2EP7QObject@Base 6.1.0
 _ZN12ScreenLocker7KSldAppD0Ev@Base 6.1.0
 _ZN12ScreenLocker7KSldAppD1Ev@Base 6.1.0
 _ZN12ScreenLocker7KSldAppD2Ev@Base 6.1.0
 _ZN13QMetaSequence12MetaSequenceI5QListI15QDBusObjectPathEE5valueE@Base 6.1.0
 _ZN13QMetaSequence12MetaSequenceI5QListI19KGlobalShortcutInfoEE5valueE@Base 6.1.0
 _ZN13QMetaSequence12MetaSequenceI5QListISt4pairI7QStringS3_EEE5valueE@Base 6.1.0
 _ZNK12QPaintDevice7devTypeEv@Base 6.1.0
 _ZNK12ScreenLocker7KSldApp10activeTimeEv@Base 6.1.0
 _ZNK12ScreenLocker7KSldApp10metaObjectEv@Base 6.1.0
 _ZNK12ScreenLocker7KSldApp11isGraceTimeEv@Base 6.1.0
 _ZNK12ScreenLocker7KSldApp19isFdoPowerInhibitedEv@Base 6.1.0
 (optional=templinst)_ZNSt8_Rb_treeI7QStringSt4pairIKS0_18QRegularExpressionESt10_Select1stIS4_ESt4lessIS0_ESaIS4_EE24_M_get_insert_unique_posERS2_@Base 6.1.0
 (optional=templinst)_ZNSt8_Rb_treeI7QStringSt4pairIKS0_18QRegularExpressionESt10_Select1stIS4_ESt4lessIS0_ESaIS4_EE29_M_get_insert_hint_unique_posESt23_Rb_tree_const_iteratorIS4_ERS2_@Base 6.1.0
 _ZTI12QDBusContext@Base 6.1.0
 _ZTIN12ScreenLocker7KSldAppE@Base 6.1.0
 _ZTIZN9QMetaType17registerConverterI5QListI15QDBusObjectPathE9QIterableI13QMetaSequenceEN9QtPrivate33QSequentialIterableConvertFunctorIS3_EEEEbT1_EUlPKvPvE_@Base 6.1.0
 _ZTIZN9QMetaType17registerConverterI5QListI19KGlobalShortcutInfoE9QIterableI13QMetaSequenceEN9QtPrivate33QSequentialIterableConvertFunctorIS3_EEEEbT1_EUlPKvPvE_@Base 6.1.0
 _ZTIZN9QMetaType17registerConverterI5QListISt4pairI7QStringS3_EE9QIterableI13QMetaSequenceEN9QtPrivate33QSequentialIterableConvertFunctorIS5_EEEEbT1_EUlPKvPvE_@Base 6.1.0
 _ZTIZN9QMetaType17registerConverterISt4pairI7QStringS2_EN17QtMetaTypePrivate25QPairVariantInterfaceImplENS4_35QPairVariantInterfaceConvertFunctorIS3_EEEEbT1_EUlPKvPvE_@Base 6.1.0
 _ZTIZN9QMetaType19registerMutableViewI5QListI15QDBusObjectPathE9QIterableI13QMetaSequenceEN9QtPrivate37QSequentialIterableMutableViewFunctorIS3_EEEEbT1_EUlPvSB_E_@Base 6.1.0
 _ZTIZN9QMetaType19registerMutableViewI5QListI19KGlobalShortcutInfoE9QIterableI13QMetaSequenceEN9QtPrivate37QSequentialIterableMutableViewFunctorIS3_EEEEbT1_EUlPvSB_E_@Base 6.1.0
 _ZTIZN9QMetaType19registerMutableViewI5QListISt4pairI7QStringS3_EE9QIterableI13QMetaSequenceEN9QtPrivate37QSequentialIterableMutableViewFunctorIS5_EEEEbT1_EUlPvSD_E_@Base 6.1.0
 _ZTS12QDBusContext@Base 6.1.0
 _ZTSN12ScreenLocker7KSldAppE@Base 6.1.0
 _ZTSZN9QMetaType17registerConverterI5QListI15QDBusObjectPathE9QIterableI13QMetaSequenceEN9QtPrivate33QSequentialIterableConvertFunctorIS3_EEEEbT1_EUlPKvPvE_@Base 6.1.0
 _ZTSZN9QMetaType17registerConverterI5QListI19KGlobalShortcutInfoE9QIterableI13QMetaSequenceEN9QtPrivate33QSequentialIterableConvertFunctorIS3_EEEEbT1_EUlPKvPvE_@Base 6.1.0
 _ZTSZN9QMetaType17registerConverterI5QListISt4pairI7QStringS3_EE9QIterableI13QMetaSequenceEN9QtPrivate33QSequentialIterableConvertFunctorIS5_EEEEbT1_EUlPKvPvE_@Base 6.1.0
 _ZTSZN9QMetaType17registerConverterISt4pairI7QStringS2_EN17QtMetaTypePrivate25QPairVariantInterfaceImplENS4_35QPairVariantInterfaceConvertFunctorIS3_EEEEbT1_EUlPKvPvE_@Base 6.1.0
 _ZTSZN9QMetaType19registerMutableViewI5QListI15QDBusObjectPathE9QIterableI13QMetaSequenceEN9QtPrivate37QSequentialIterableMutableViewFunctorIS3_EEEEbT1_EUlPvSB_E_@Base 6.1.0
 _ZTSZN9QMetaType19registerMutableViewI5QListI19KGlobalShortcutInfoE9QIterableI13QMetaSequenceEN9QtPrivate37QSequentialIterableMutableViewFunctorIS3_EEEEbT1_EUlPvSB_E_@Base 6.1.0
 _ZTSZN9QMetaType19registerMutableViewI5QListISt4pairI7QStringS3_EE9QIterableI13QMetaSequenceEN9QtPrivate37QSequentialIterableMutableViewFunctorIS5_EEEEbT1_EUlPvSD_E_@Base 6.1.0
 _ZTVN12ScreenLocker7KSldAppE@Base 6.1.0
 (optional=templinst)_ZZN9QMetaType21registerConverterImplI5QListI15QDBusObjectPathE9QIterableI13QMetaSequenceEEEbSt8functionIFbPKvPvEES_S_E10unregister@Base 6.1.0
 (optional=templinst)_ZZN9QMetaType21registerConverterImplI5QListI19KGlobalShortcutInfoE9QIterableI13QMetaSequenceEEEbSt8functionIFbPKvPvEES_S_E10unregister@Base 6.1.0
 (optional=templinst)_ZZN9QMetaType21registerConverterImplI5QListISt4pairI7QStringS3_EE9QIterableI13QMetaSequenceEEEbSt8functionIFbPKvPvEES_S_E10unregister@Base 6.1.0
 (optional=templinst)_ZZN9QMetaType21registerConverterImplISt4pairI7QStringS2_EN17QtMetaTypePrivate25QPairVariantInterfaceImplEEEbSt8functionIFbPKvPvEES_S_E10unregister@Base 6.1.0
 (optional=templinst)_ZZN9QMetaType23registerMutableViewImplI5QListI15QDBusObjectPathE9QIterableI13QMetaSequenceEEEbSt8functionIFbPvS8_EES_S_E10unregister@Base 6.1.0
 (optional=templinst)_ZZN9QMetaType23registerMutableViewImplI5QListI19KGlobalShortcutInfoE9QIterableI13QMetaSequenceEEEbSt8functionIFbPvS8_EES_S_E10unregister@Base 6.1.0
 (optional=templinst)_ZZN9QMetaType23registerMutableViewImplI5QListISt4pairI7QStringS3_EE9QIterableI13QMetaSequenceEEEbSt8functionIFbPvSA_EES_S_E10unregister@Base 6.1.0
 org_kde_ksld_interface@Base 6.1.0
